; ModuleID = 'source-C-CXX/49/1486.c'
source_filename = "source-C-CXX/49/1486.c"
target datalayout = "e-m:e-p270:32:32-p271:32:32-p272:64:64-i64:64-f80:128-n8:16:32:64-S128"
target triple = "x86_64-pc-linux-gnu"

@.str = private unnamed_addr constant [3 x i8] c"%d\00", align 1
@.str.1 = private unnamed_addr constant [4 x i8] c"%d\0A\00", align 1
@switch.table.yue = private unnamed_addr constant [13 x i32] [i32 0, i32 31, i32 28, i32 31, i32 30, i32 31, i32 30, i32 31, i32 31, i32 30, i32 31, i32 30, i32 31], align 4

; Function Attrs: nofree nounwind sspstrong uwtable
define dso_local i32 @main() local_unnamed_addr #0 {
  %1 = alloca i32, align 4
  %2 = bitcast i32* %1 to i8*
  call void @llvm.lifetime.start.p0i8(i64 4, i8* nonnull %2) #4
  %3 = call i32 (i8*, ...) @__isoc99_scanf(i8* getelementptr inbounds ([3 x i8], [3 x i8]* @.str, i64 0, i64 0), i32* nonnull %1)
  %4 = load i32, i32* %1, align 4, !tbaa !5
  switch i32 %4, label %8 [
    i32 0, label %5
    i32 7, label %5
  ]

5:                                                ; preds = %0, %0
  %6 = call i32 (i8*, ...) @printf(i8* nonnull dereferenceable(1) getelementptr inbounds ([4 x i8], [4 x i8]* @.str.1, i64 0, i64 0), i32 1)
  %7 = load i32, i32* %1, align 4, !tbaa !5
  br label %8

8:                                                ; preds = %5, %0
  %9 = phi i32 [ %7, %5 ], [ %4, %0 ]
  switch i32 %9, label %12 [
    i32 4, label %10
    i32 11, label %10
  ]

10:                                               ; preds = %8, %8
  %11 = call i32 (i8*, ...) @printf(i8* nonnull dereferenceable(1) getelementptr inbounds ([4 x i8], [4 x i8]* @.str.1, i64 0, i64 0), i32 2)
  br label %12

12:                                               ; preds = %10, %8
  %13 = load i32, i32* %1, align 4, !tbaa !5
  switch i32 %13, label %17 [
    i32 4, label %14
    i32 11, label %14
  ]

14:                                               ; preds = %12, %12
  %15 = call i32 (i8*, ...) @printf(i8* nonnull dereferenceable(1) getelementptr inbounds ([4 x i8], [4 x i8]* @.str.1, i64 0, i64 0), i32 3)
  %16 = load i32, i32* %1, align 4, !tbaa !5
  br label %17

17:                                               ; preds = %12, %14
  %18 = phi i32 [ %13, %12 ], [ %16, %14 ]
  switch i32 %18, label %21 [
    i32 1, label %19
    i32 8, label %19
  ]

19:                                               ; preds = %17, %17
  %20 = call i32 (i8*, ...) @printf(i8* nonnull dereferenceable(1) getelementptr inbounds ([4 x i8], [4 x i8]* @.str.1, i64 0, i64 0), i32 4)
  br label %21

21:                                               ; preds = %19, %17
  %22 = load i32, i32* %1, align 4, !tbaa !5
  switch i32 %22, label %26 [
    i32 6, label %23
    i32 13, label %23
  ]

23:                                               ; preds = %21, %21
  %24 = call i32 (i8*, ...) @printf(i8* nonnull dereferenceable(1) getelementptr inbounds ([4 x i8], [4 x i8]* @.str.1, i64 0, i64 0), i32 5)
  %25 = load i32, i32* %1, align 4, !tbaa !5
  br label %26

26:                                               ; preds = %21, %23
  %27 = phi i32 [ %22, %21 ], [ %25, %23 ]
  switch i32 %27, label %30 [
    i32 3, label %28
    i32 10, label %28
  ]

28:                                               ; preds = %26, %26
  %29 = call i32 (i8*, ...) @printf(i8* nonnull dereferenceable(1) getelementptr inbounds ([4 x i8], [4 x i8]* @.str.1, i64 0, i64 0), i32 6)
  br label %30

30:                                               ; preds = %28, %26
  %31 = load i32, i32* %1, align 4, !tbaa !5
  switch i32 %31, label %35 [
    i32 1, label %32
    i32 8, label %32
  ]

32:                                               ; preds = %30, %30
  %33 = call i32 (i8*, ...) @printf(i8* nonnull dereferenceable(1) getelementptr inbounds ([4 x i8], [4 x i8]* @.str.1, i64 0, i64 0), i32 7)
  %34 = load i32, i32* %1, align 4, !tbaa !5
  br label %35

35:                                               ; preds = %30, %32
  %36 = phi i32 [ %31, %30 ], [ %34, %32 ]
  switch i32 %36, label %39 [
    i32 5, label %37
    i32 12, label %37
  ]

37:                                               ; preds = %35, %35
  %38 = call i32 (i8*, ...) @printf(i8* nonnull dereferenceable(1) getelementptr inbounds ([4 x i8], [4 x i8]* @.str.1, i64 0, i64 0), i32 8)
  br label %39

39:                                               ; preds = %35, %37
  %40 = load i32, i32* %1, align 4, !tbaa !5
  switch i32 %40, label %44 [
    i32 2, label %41
    i32 9, label %41
  ]

41:                                               ; preds = %39, %39
  %42 = call i32 (i8*, ...) @printf(i8* nonnull dereferenceable(1) getelementptr inbounds ([4 x i8], [4 x i8]* @.str.1, i64 0, i64 0), i32 9)
  %43 = load i32, i32* %1, align 4, !tbaa !5
  br label %44

44:                                               ; preds = %41, %39
  %45 = phi i32 [ %43, %41 ], [ %40, %39 ]
  switch i32 %45, label %48 [
    i32 0, label %46
    i32 7, label %46
  ]

46:                                               ; preds = %44, %44
  %47 = call i32 (i8*, ...) @printf(i8* nonnull dereferenceable(1) getelementptr inbounds ([4 x i8], [4 x i8]* @.str.1, i64 0, i64 0), i32 10)
  br label %48

48:                                               ; preds = %44, %46
  %49 = load i32, i32* %1, align 4, !tbaa !5
  switch i32 %49, label %53 [
    i32 4, label %50
    i32 11, label %50
  ]

50:                                               ; preds = %48, %48
  %51 = call i32 (i8*, ...) @printf(i8* nonnull dereferenceable(1) getelementptr inbounds ([4 x i8], [4 x i8]* @.str.1, i64 0, i64 0), i32 11)
  %52 = load i32, i32* %1, align 4, !tbaa !5
  br label %53

53:                                               ; preds = %50, %48
  %54 = phi i32 [ %52, %50 ], [ %49, %48 ]
  switch i32 %54, label %57 [
    i32 2, label %55
    i32 9, label %55
  ]

55:                                               ; preds = %53, %53
  %56 = call i32 (i8*, ...) @printf(i8* nonnull dereferenceable(1) getelementptr inbounds ([4 x i8], [4 x i8]* @.str.1, i64 0, i64 0), i32 12)
  br label %57

57:                                               ; preds = %55, %53
  call void @llvm.lifetime.end.p0i8(i64 4, i8* nonnull %2) #4
  ret i32 0
}

; Function Attrs: argmemonly mustprogress nofree nosync nounwind willreturn
declare void @llvm.lifetime.start.p0i8(i64 immarg, i8* nocapture) #1

; Function Attrs: nofree nounwind
declare noundef i32 @__isoc99_scanf(i8* nocapture noundef readonly, ...) local_unnamed_addr #2

; Function Attrs: mustprogress nofree norecurse nosync nounwind readnone sspstrong uwtable willreturn
define dso_local i32 @yue(i32 %0) local_unnamed_addr #3 {
  %2 = icmp ult i32 %0, 13
  br i1 %2, label %3, label %7

3:                                                ; preds = %1
  %4 = sext i32 %0 to i64
  %5 = getelementptr inbounds [13 x i32], [13 x i32]* @switch.table.yue, i64 0, i64 %4
  %6 = load i32, i32* %5, align 4
  br label %7

7:                                                ; preds = %1, %3
  %8 = phi i32 [ %6, %3 ], [ 30, %1 ]
  ret i32 %8
}

; Function Attrs: nofree nounwind
declare noundef i32 @printf(i8* nocapture noundef readonly, ...) local_unnamed_addr #2

; Function Attrs: argmemonly mustprogress nofree nosync nounwind willreturn
declare void @llvm.lifetime.end.p0i8(i64 immarg, i8* nocapture) #1


!llvm.module.flags = !{!0, !1, !2, !3}
!llvm.ident = !{!4}

!0 = !{i32 1, !"wchar_size", i32 4}
!1 = !{i32 7, !"PIC Level", i32 2}
!2 = !{i32 7, !"PIE Level", i32 2}
!3 = !{i32 7, !"uwtable", i32 1}
!4 = !{!"clang version 13.0.0"}
!5 = !{!6, !6, i64 0}
!6 = !{!"int", !7, i64 0}
!7 = !{!"omnipotent char", !8, i64 0}
!8 = !{!"Simple C/C++ TBAA"}
